target datalayout = "e-m:e-p270:32:32-p271:32:32-p272:64:64-i64:64-i128:128-f80:128-n8:16:32:64-S128"
target triple = "x86_64-pc-linux-gnu"

%struct.nag_req = type { i32, i32, [64 x i8], ptr }

@.str = private unnamed_addr constant [7 x i8] c"info.c\00", align 1
@__func__.enqueue_nag_req = private unnamed_addr constant [16 x i8] c"enqueue_nag_req\00", align 1
@nag_req_list = internal global ptr null, align 8

; Function Attrs: nounwind uwtable
define dso_local i32 @enqueue_nag_req(i32 noundef %0, i32 noundef %1, ptr noundef %2) #0 {
  %4 = alloca i32, align 4
  %5 = alloca i32, align 4
  %6 = alloca ptr, align 8
  %7 = alloca ptr, align 8
  store i32 %0, ptr %4, align 4
  store i32 %1, ptr %5, align 4
  store ptr %2, ptr %6, align 8
  call void @llvm.lifetime.start.p0(i64 8, ptr %7) #4
  %8 = call ptr @slurm_xcalloc(i64 noundef 1, i64 noundef 80, i1 noundef zeroext true, i1 noundef zeroext false, ptr noundef @.str, i32 noundef 85, ptr noundef @__func__.enqueue_nag_req)
  store ptr %8, ptr %7, align 8
  %9 = load i32, ptr %4, align 4
  %10 = load ptr, ptr %7, align 8
  %11 = getelementptr inbounds nuw %struct.nag_req, ptr %10, i32 0, i32 0
  store i32 %9, ptr %11, align 8
  %12 = load i32, ptr %5, align 4
  %13 = load ptr, ptr %7, align 8
  %14 = getelementptr inbounds nuw %struct.nag_req, ptr %13, i32 0, i32 1
  store i32 %12, ptr %14, align 4
  %15 = load ptr, ptr %7, align 8
  %16 = getelementptr inbounds nuw %struct.nag_req, ptr %15, i32 0, i32 2
  %17 = getelementptr inbounds [64 x i8], ptr %16, i64 0, i64 0
  %18 = load ptr, ptr %6, align 8
  %19 = call i64 @slurm_strlcpy(ptr noundef %17, ptr noundef %18, i64 noundef 64)
  %20 = load ptr, ptr @nag_req_list, align 8
  %21 = load ptr, ptr %7, align 8
  %22 = getelementptr inbounds nuw %struct.nag_req, ptr %21, i32 0, i32 3
  store ptr %20, ptr %22, align 8
  %23 = load ptr, ptr %7, align 8
  store ptr %23, ptr @nag_req_list, align 8
  call void @llvm.lifetime.end.p0(i64 8, ptr %7) #4
  ret i32 0
}