; Function Attrs: nounwind uwtable
define dso_local noundef i32 @enqueue_nag_req(i32 noundef %0, i32 noundef %1, ptr noundef %2) local_unnamed_addr #0 {
  %4 = tail call ptr @slurm_xcalloc(i64 noundef 1, i64 noundef 80, i1 noundef zeroext true, i1 noundef zeroext false, ptr noundef nonnull @.str, i32 noundef 85, ptr noundef nonnull @__func__.enqueue_nag_req) #5
  store i32 %0, ptr %4, align 8
  %5 = getelementptr inbounds nuw i8, ptr %4, i64 4
  store i32 %1, ptr %5, align 4
  %6 = getelementptr inbounds nuw i8, ptr %4, i64 8
  %7 = tail call i64 @slurm_strlcpy(ptr noundef nonnull %6, ptr noundef %2, i64 noundef 64) #5
  %8 = load ptr, ptr @nag_req_list, align 8
  %9 = getelementptr inbounds nuw i8, ptr %4, i64 72
  store ptr %8, ptr %9, align 8
  store ptr %4, ptr @nag_req_list, align 8
  ret i32 0
}